; Function Attrs: mustprogress nofree norecurse nosync nounwind willreturn memory(read, inaccessiblemem: none) uwtable
define hidden noundef i64 @_ZNK4cvc58internal7strings18StringHashFunctionclERKNS0_6StringE(ptr nocapture noundef nonnull readnone align 1 dereferenceable(1) %this, ptr nocapture noundef nonnull readonly align 8 dereferenceable(24) %s) local_unnamed_addr #4 align 2 {
entry:
  %0 = load ptr, ptr %s, align 8
  %_M_finish.i = getelementptr inbounds i8, ptr %s, i64 8
  %1 = load ptr, ptr %_M_finish.i, align 8
  %cmp.i.not5 = icmp eq ptr %0, %1
  br i1 %cmp.i.not5, label %for.end, label %for.body

for.body:                                         ; preds = %entry, %for.body
  %ret.07 = phi i64 [ %add10.i, %for.body ], [ -3750763034362895579, %entry ]
  %__begin2.sroa.0.06 = phi ptr [ %incdec.ptr.i, %for.body ], [ %0, %entry ]
  %2 = load i32, ptr %__begin2.sroa.0.06, align 4
  %conv = zext i32 %2 to i64
  %xor.i = xor i64 %ret.07, %conv
  %add10.i = mul i64 %xor.i, 1099511628211
  %incdec.ptr.i = getelementptr inbounds i8, ptr %__begin2.sroa.0.06, i64 4
  %cmp.i.not = icmp eq ptr %incdec.ptr.i, %1
  br i1 %cmp.i.not, label %for.end, label %for.body

for.end:                                          ; preds = %for.body, %entry
  %ret.0.lcssa = phi i64 [ -3750763034362895579, %entry ], [ %add10.i, %for.body ]
  ret i64 %ret.0.lcssa
}